; Function Attrs: mustprogress null_pointer_is_valid sspstrong uwtable
define noundef ptr @_ZN23CaptureCommentTabWidget15getCommentsTextEv(ptr noundef align 8 dereferenceable_or_null(40) %0) local_unnamed_addr #0 align 2 personality ptr @__gxx_personality_v0 {
  %2 = alloca %class.QString, align 8
  %3 = tail call noundef i32 @_ZNK10QTabWidget5countEv(ptr noundef align 8 dereferenceable_or_null(40) %0)
  %4 = add i32 %3, 1
  %5 = tail call ptr @g_ptr_array_new_full(i32 noundef %4, ptr noundef nonnull @g_free)
  %6 = tail call noundef i32 @_ZNK10QTabWidget5countEv(ptr noundef align 8 dereferenceable_or_null(40) %0)
  %.not2126 = icmp sgt i32 %6, 0
  br i1 %.not2126, label %.lr.ph, label %.critedge

.lr.ph:                                           ; preds = %1, %25
  %.01727 = phi i32 [ %26, %25 ], [ 0, %1 ]
  %7 = call noundef ptr @_ZNK10QTabWidget6widgetEi(ptr noundef align 8 dereferenceable_or_null(40) %0, i32 noundef %.01727)
  %8 = call noundef ptr @_ZNK11QMetaObject4castEPK7QObject(ptr noundef nonnull align 8 dereferenceable_or_null(56) @_ZN14QPlainTextEdit16staticMetaObjectE, ptr noundef %7)
  %.not = icmp eq ptr %8, null
  br i1 %.not, label %25, label %9

9:                                                ; preds = %.lr.ph
  %10 = call noundef ptr @_ZNK14QPlainTextEdit8documentEv(ptr noundef nonnull align 8 dereferenceable_or_null(40) %8), !noalias !10
  call void @_ZNK13QTextDocument11toPlainTextEv(ptr dead_on_unwind nonnull writable sret(%class.QString) align 8 %2, ptr noundef align 8 dereferenceable_or_null(16) %10)
  %11 = invoke noundef ptr @_Z14qstring_strdup7QString(ptr noundef nonnull %2)
          to label %12 unwind label %19

12:                                               ; preds = %9
  %13 = load ptr, ptr %2, align 8
  %.not.i.i.i = icmp eq ptr %13, null
  br i1 %.not.i.i.i, label %_ZN7QStringD2Ev.exit, label %_ZN17QArrayDataPointerIDsE5derefEv.exit.i.i

_ZN17QArrayDataPointerIDsE5derefEv.exit.i.i:      ; preds = %12
  %14 = atomicrmw sub ptr %13, i32 1 seq_cst, align 4
  %.not.i.i = icmp eq i32 %14, 1
  br i1 %.not.i.i, label %15, label %_ZN7QStringD2Ev.exit

15:                                               ; preds = %_ZN17QArrayDataPointerIDsE5derefEv.exit.i.i
  %16 = load ptr, ptr %2, align 8
  call void @_ZN10QArrayData10deallocateEPS_xx(ptr noundef %16, i64 noundef 2, i64 noundef 8) #15
  br label %_ZN7QStringD2Ev.exit

_ZN7QStringD2Ev.exit:                             ; preds = %12, %_ZN17QArrayDataPointerIDsE5derefEv.exit.i.i, %15
  %17 = call i64 @strlen(ptr noundef %11) #16
  %18 = icmp ult i64 %17, 65536
  br i1 %18, label %.thread, label %28

19:                                               ; preds = %9
  %20 = landingpad { ptr, i32 }
          cleanup
  %21 = load ptr, ptr %2, align 8
  %.not.i.i.i22 = icmp eq ptr %21, null
  br i1 %.not.i.i.i22, label %_ZN7QStringD2Ev.exit25, label %_ZN17QArrayDataPointerIDsE5derefEv.exit.i.i23

_ZN17QArrayDataPointerIDsE5derefEv.exit.i.i23:    ; preds = %19
  %22 = atomicrmw sub ptr %21, i32 1 seq_cst, align 4
  %.not.i.i24 = icmp eq i32 %22, 1
  br i1 %.not.i.i24, label %23, label %_ZN7QStringD2Ev.exit25

23:                                               ; preds = %_ZN17QArrayDataPointerIDsE5derefEv.exit.i.i23
  %24 = load ptr, ptr %2, align 8
  call void @_ZN10QArrayData10deallocateEPS_xx(ptr noundef %24, i64 noundef 2, i64 noundef 8) #15
  br label %_ZN7QStringD2Ev.exit25

_ZN7QStringD2Ev.exit25:                           ; preds = %19, %_ZN17QArrayDataPointerIDsE5derefEv.exit.i.i23, %23
  resume { ptr, i32 } %20

.thread:                                          ; preds = %_ZN7QStringD2Ev.exit
  call void @g_ptr_array_add(ptr noundef %5, ptr noundef %11)
  br label %25

25:                                               ; preds = %.thread, %.lr.ph
  %26 = add nuw nsw i32 %.01727, 1
  %27 = call noundef i32 @_ZNK10QTabWidget5countEv(ptr noundef align 8 dereferenceable_or_null(40) %0)
  %.not21 = icmp slt i32 %26, %27
  br i1 %.not21, label %.lr.ph, label %.critedge, !llvm.loop !13

28:                                               ; preds = %_ZN7QStringD2Ev.exit
  %29 = call ptr @g_ptr_array_free(ptr noundef %5, i32 noundef 1)
  br label %31

.critedge:                                        ; preds = %25, %1
  call void @g_ptr_array_add(ptr noundef %5, ptr noundef null)
  %30 = call ptr @g_ptr_array_free(ptr noundef %5, i32 noundef 0)
  br label %31

31:                                               ; preds = %28, %.critedge
  %.4 = phi ptr [ %30, %.critedge ], [ null, %28 ]
  ret ptr %.4
}